; Function Attrs: nounwind uwtable
define ptr @l_Lake_ExternLib_recBuildDefault(ptr noundef %0, ptr noundef %1, ptr noundef %2, ptr noundef %3, ptr noundef %4, ptr noundef %5, ptr noundef %6) #0 {
  %8 = getelementptr inbounds nuw i8, ptr %0, i64 8
  %9 = load ptr, ptr %8, align 8, !tbaa !4
  %10 = ptrtoint ptr %9 to i64
  %11 = and i64 %10, 1
  %.not = icmp eq i64 %11, 0
  br i1 %.not, label %12, label %lean_inc.exit28

12:                                               ; preds = %7
  %.val.i = load i32, ptr %9, align 4, !tbaa !8
  %13 = icmp sgt i32 %.val.i, 0
  br i1 %13, label %14, label %16, !prof !11

14:                                               ; preds = %12
  %15 = add nuw i32 %.val.i, 1
  store i32 %15, ptr %9, align 4, !tbaa !8
  br label %lean_inc.exit28

16:                                               ; preds = %12
  %.not.i29 = icmp eq i32 %.val.i, 0
  br i1 %.not.i29, label %lean_inc.exit28, label %17

17:                                               ; preds = %16
  tail call void @lean_inc_ref_cold(ptr noundef nonnull %9) #5
  br label %lean_inc.exit28

lean_inc.exit28:                                  ; preds = %17, %16, %14, %7
  %18 = getelementptr inbounds nuw i8, ptr %0, i64 16
  %19 = load ptr, ptr %18, align 8, !tbaa !4
  %20 = ptrtoint ptr %19 to i64
  %21 = and i64 %20, 1
  %.not37 = icmp eq i64 %21, 0
  br i1 %.not37, label %22, label %lean_inc.exit27

22:                                               ; preds = %lean_inc.exit28
  %.val.i30 = load i32, ptr %19, align 4, !tbaa !8
  %23 = icmp sgt i32 %.val.i30, 0
  br i1 %23, label %24, label %26, !prof !11

24:                                               ; preds = %22
  %25 = add nuw i32 %.val.i30, 1
  store i32 %25, ptr %19, align 4, !tbaa !8
  br label %lean_inc.exit27

26:                                               ; preds = %22
  %.not.i31 = icmp eq i32 %.val.i30, 0
  br i1 %.not.i31, label %lean_inc.exit27, label %27

27:                                               ; preds = %26
  tail call void @lean_inc_ref_cold(ptr noundef nonnull %19) #5
  br label %lean_inc.exit27

lean_inc.exit27:                                  ; preds = %27, %26, %24, %lean_inc.exit28
  %28 = getelementptr inbounds nuw i8, ptr %9, i64 8
  %29 = load ptr, ptr %28, align 8, !tbaa !4
  %30 = ptrtoint ptr %29 to i64
  %31 = and i64 %30, 1
  %.not38 = icmp eq i64 %31, 0
  br i1 %.not38, label %32, label %lean_inc.exit

32:                                               ; preds = %lean_inc.exit27
  %.val.i33 = load i32, ptr %29, align 4, !tbaa !8
  %33 = icmp sgt i32 %.val.i33, 0
  br i1 %33, label %34, label %36, !prof !11

34:                                               ; preds = %32
  %35 = add nuw i32 %.val.i33, 1
  store i32 %35, ptr %29, align 4, !tbaa !8
  br label %lean_inc.exit

36:                                               ; preds = %32
  %.not.i34 = icmp eq i32 %.val.i33, 0
  br i1 %.not.i34, label %lean_inc.exit, label %37

37:                                               ; preds = %36
  tail call void @lean_inc_ref_cold(ptr noundef nonnull %29) #5
  br label %lean_inc.exit

lean_inc.exit:                                    ; preds = %37, %36, %34, %lean_inc.exit27
  br i1 %.not, label %38, label %lean_dec.exit

38:                                               ; preds = %lean_inc.exit
  %39 = load i32, ptr %9, align 4, !tbaa !8
  %40 = icmp sgt i32 %39, 1
  br i1 %40, label %41, label %43, !prof !11

41:                                               ; preds = %38
  %42 = add nsw i32 %39, -1
  store i32 %42, ptr %9, align 4, !tbaa !8
  br label %lean_dec.exit

43:                                               ; preds = %38
  %.not.i = icmp eq i32 %39, 0
  br i1 %.not.i, label %lean_dec.exit, label %44

44:                                               ; preds = %43
  tail call void @lean_dec_ref_cold(ptr noundef nonnull %9) #5
  br label %lean_dec.exit

lean_dec.exit:                                    ; preds = %44, %43, %41, %lean_inc.exit
  tail call void @lean_inc_heartbeat() #5
  %45 = tail call noalias ptr @mi_malloc_small(i64 noundef 24) #5
  %46 = icmp eq ptr %45, null
  br i1 %46, label %47, label %lean_alloc_ctor.exit

47:                                               ; preds = %lean_dec.exit
  tail call void @lean_internal_panic_out_of_memory() #6
  unreachable

lean_alloc_ctor.exit:                             ; preds = %lean_dec.exit
  %48 = getelementptr inbounds nuw i8, ptr %45, i64 4
  store i32 1, ptr %45, align 4, !tbaa !8
  store i32 33685528, ptr %48, align 4
  %49 = getelementptr inbounds nuw i8, ptr %45, i64 8
  store ptr %29, ptr %49, align 8, !tbaa !4
  %50 = getelementptr inbounds nuw i8, ptr %45, i64 16
  store ptr %19, ptr %50, align 8, !tbaa !4
  %51 = load ptr, ptr @l_Lake_ExternLib_keyword, align 8, !tbaa !4
  %52 = load ptr, ptr @l_Lake_ExternLib_staticFacet, align 8, !tbaa !4
  tail call void @lean_inc_heartbeat() #5
  %53 = tail call noalias ptr @mi_malloc_small(i64 noundef 40) #5
  %54 = icmp eq ptr %53, null
  br i1 %54, label %55, label %lean_alloc_ctor.exit36

55:                                               ; preds = %lean_alloc_ctor.exit
  tail call void @lean_internal_panic_out_of_memory() #6
  unreachable

lean_alloc_ctor.exit36:                           ; preds = %lean_alloc_ctor.exit
  %56 = getelementptr inbounds nuw i8, ptr %53, i64 4
  store i32 1, ptr %53, align 4, !tbaa !8
  store i32 17039400, ptr %56, align 4
  %57 = getelementptr inbounds nuw i8, ptr %53, i64 8
  store ptr %45, ptr %57, align 8, !tbaa !4
  %58 = getelementptr inbounds nuw i8, ptr %53, i64 16
  store ptr %51, ptr %58, align 8, !tbaa !4
  %59 = getelementptr inbounds nuw i8, ptr %53, i64 24
  store ptr %0, ptr %59, align 8, !tbaa !4
  %60 = getelementptr inbounds nuw i8, ptr %53, i64 32
  store ptr %52, ptr %60, align 8, !tbaa !4
  %61 = tail call ptr @lean_apply_6(ptr noundef %1, ptr noundef nonnull %53, ptr noundef %2, ptr noundef %3, ptr noundef %4, ptr noundef %5, ptr noundef %6) #5
  ret ptr %61
}